Certificate:
    Data:
        Version: 3 (0x2)
        Serial Number: 1 (0x1)
        Signature Algorithm: sha1WithRSAEncryption
        Issuer: C=AT, ST=Vienna, L=Vienna, O=TU Wien, OU=CSE, CN=localhost
        Validity
            Not Before: Jun 15 21:54:54 2014 GMT
            Not After : Jun 15 21:54:54 2015 GMT
        Subject: C=AT, ST=Vienna, O=TU Wien, OU=CSE, CN=localhost
        Subject Public Key Info:
            Public Key Algorithm: rsaEncryption
            RSA Public Key: (2048 bit)
                Modulus (2048 bit):
                    00:80:d5:90:2a:6a:18:10:9e:82:46:3f:ea:77:c9:
                    07:fa:30:7b:81:f6:f4:10:1f:d2:3f:88:40:83:df:
                    8d:bf:18:4b:fe:e4:0a:04:96:23:31:59:78:57:49:
                    1d:01:5c:2c:2a:c4:54:89:7d:9c:c7:7c:7b:80:bd:
                    d8:f2:79:43:e8:97:13:26:e4:57:f8:bb:7d:c1:1a:
                    69:53:41:7c:23:35:28:ca:3b:99:67:94:82:98:36:
                    da:f0:14:20:a8:42:1e:b4:10:c7:97:e9:48:95:69:
                    fb:3f:eb:5a:94:c4:f8:56:13:68:56:14:f9:73:d0:
                    51:5e:c5:5d:10:35:db:14:e0:68:45:74:fb:80:23:
                    15:7f:14:7a:6f:04:40:a7:ee:4d:88:69:84:95:52:
                    d7:dd:5b:4d:bc:08:19:c1:8e:27:07:26:51:6e:a8:
                    df:00:0d:80:f3:f7:42:2a:2f:2b:38:18:05:38:cb:
                    ea:c4:47:cd:b1:3b:05:3d:d6:64:d1:c6:b2:49:0a:
                    b6:b7:25:3b:c9:6a:0a:ed:43:c0:23:ea:ac:86:3a:
                    4a:41:58:93:d9:e7:99:9e:40:fb:af:d6:a1:51:b1:
                    29:15:7c:16:ed:4b:04:fe:96:df:59:4f:c5:a5:55:
                    77:97:54:e8:6f:c9:69:45:dc:f4:7a:01:14:dd:4b:
                    ee:e3
                Exponent: 65537 (0x10001)
        X509v3 extensions:
            X509v3 Basic Constraints: 
                CA:FALSE
            Netscape Comment: 
                OpenSSL Generated Certificate
            X509v3 Subject Key Identifier: 
                82:2A:E0:D1:28:D8:A9:A2:3F:6E:72:95:37:04:C5:DB:04:1E:E5:8B
            X509v3 Authority Key Identifier: 
                DirName:/C=AT/ST=Vienna/L=Vienna/O=TU Wien/OU=CSE/CN=localhost
                serial:D9:48:E1:5B:64:BF:53:A4

    Signature Algorithm: sha1WithRSAEncryption
        42:fc:78:94:0b:85:a2:e7:20:07:87:69:d7:8f:38:c1:c8:71:
        97:7c:6c:9a:5d:63:de:df:4e:48:5b:90:96:d2:42:b8:bb:9b:
        68:44:02:14:b3:cc:13:31:73:5a:69:78:bc:59:54:a7:d4:7a:
        2e:ee:34:38:db:78:18:5b:28:dd:1f:e0:f7:4e:45:fc:6e:de:
        d7:08:aa:de:5e:d3:75:4c:90:58:b7:ef:ab:22:96:75:b2:3d:
        06:8d:7d:59:f8:7c:5a:7f:6d:d6:66:5e:8b:70:bb:85:b9:00:
        db:30:78:1e:da:1f:c3:e4:d0:cf:12:65:26:e9:13:17:0f:d7:
        63:d4:86:84:64:34:e2:ca:58:f2:7a:92:f4:58:16:67:d5:8a:
        70:6a:e7:05:f5:6b:25:f0:a6:83:df:85:aa:0c:8e:67:9c:2e:
        79:5b:f2:80:67:ea:77:c3:c1:25:64:07:ec:90:9a:93:99:ac:
        fe:8d:9f:4e:23:e2:6d:fb:57:7f:69:e9:ff:eb:8c:0a:f9:73:
        86:f0:90:79:38:e9:92:a3:78:1f:0a:09:cb:0f:a4:2c:61:d2:
        91:75:0f:3a:d4:d3:e0:3a:6e:36:ea:a3:a3:1a:bc:dc:29:13:
        58:66:bd:46:50:57:38:3a:50:7b:da:fe:c1:cf:00:66:5f:c1:
        7e:34:a0:eb
-----BEGIN CERTIFICATE-----
MIIECzCCAvOgAwIBAgIBATANBgkqhkiG9w0BAQUFADBjMQswCQYDVQQGEwJBVDEP
MA0GA1UECBMGVmllbm5hMQ8wDQYDVQQHEwZWaWVubmExEDAOBgNVBAoTB1RVIFdp
ZW4xDDAKBgNVBAsTA0NTRTESMBAGA1UEAxMJbG9jYWxob3N0MB4XDTE0MDYxNTIx
NTQ1NFoXDTE1MDYxNTIxNTQ1NFowUjELMAkGA1UEBhMCQVQxDzANBgNVBAgTBlZp
ZW5uYTEQMA4GA1UEChMHVFUgV2llbjEMMAoGA1UECxMDQ1NFMRIwEAYDVQQDEwls
b2NhbGhvc3QwggEiMA0GCSqGSIb3DQEBAQUAA4IBDwAwggEKAoIBAQCA1ZAqahgQ
noJGP+p3yQf6MHuB9vQQH9I/iECD342/GEv+5AoEliMxWXhXSR0BXCwqxFSJfZzH
fHuAvdjyeUPolxMm5Ff4u33BGmlTQXwjNSjKO5lnlIKYNtrwFCCoQh60EMeX6UiV
afs/61qUxPhWE2hWFPlz0FFexV0QNdsU4GhFdPuAIxV/FHpvBECn7k2IaYSVUtfd
W028CBnBjicHJlFuqN8ADYDz90IqLys4GAU4y+rER82xOwU91mTRxrJJCra3JTvJ
agrtQ8Aj6qyGOkpBWJPZ55meQPuv1qFRsSkVfBbtSwT+lt9ZT8WlVXeXVOhvyWlF
3PR6ARTdS+7jAgMBAAGjgdowgdcwCQYDVR0TBAIwADAsBglghkgBhvhCAQ0EHxYd
T3BlblNTTCBHZW5lcmF0ZWQgQ2VydGlmaWNhdGUwHQYDVR0OBBYEFIIq4NEo2Kmi
P25ylTcExdsEHuWLMH0GA1UdIwR2MHShZ6RlMGMxCzAJBgNVBAYTAkFUMQ8wDQYD
VQQIEwZWaWVubmExDzANBgNVBAcTBlZpZW5uYTEQMA4GA1UEChMHVFUgV2llbjEM
MAoGA1UECxMDQ1NFMRIwEAYDVQQDEwlsb2NhbGhvc3SCCQDZSOFbZL9TpDANBgkq
hkiG9w0BAQUFAAOCAQEAQvx4lAuFoucgB4dp1484wchxl3xsml1j3t9OSFuQltJC
uLubaEQCFLPMEzFzWml4vFlUp9R6Lu40ONt4GFso3R/g905F/G7e1wiq3l7TdUyQ
WLfvqyKWdbI9Bo19Wfh8Wn9t1mZei3C7hbkA2zB4Htofw+TQzxJlJukTFw/XY9SG
hGQ04spY8nqS9FgWZ9WKcGrnBfVrJfCmg9+FqgyOZ5wueVvygGfqd8PBJWQH7JCa
k5ms/o2fTiPibftXf2np/+uMCvlzhvCQeTjpkqN4HwoJyw+kLGHSkXUPOtTT4Dpu
Nuqjoxq83CkTWGa9RlBXODpQe9r+wc8AZl/BfjSg6w==
-----END CERTIFICATE-----
